; Function Attrs: mustprogress nofree norecurse nosync nounwind willreturn memory(none) uwtable
define hidden noundef range(i32 0, 256) i32 @_ZN2OT4cff131lookup_expert_encoding_for_codeEj(i32 noundef %0) local_unnamed_addr #0 align 2 {
  %2 = icmp ult i32 %0, 379
  br i1 %2, label %3, label %8

3:                                                ; preds = %1
  %4 = zext nneg i32 %0 to i64
  %5 = getelementptr inbounds nuw [379 x i8], ptr @_ZL23expert_encoding_to_code, i64 0, i64 %4
  %6 = load i8, ptr %5, align 1, !tbaa !4
  %7 = zext i8 %6 to i32
  br label %8

8:                                                ; preds = %1, %3
  %.0 = phi i32 [ %7, %3 ], [ 0, %1 ]
  ret i32 %.0
}